(dp0
S''
p1
(dp2
S'readdir'
p3
(lp4
ccopy_reg
_reconstructor
p5
(csuds.sax.text
Text
p6
c__builtin__
unicode
p7
V$.declaredata
p8
tp9
Rp10
(dp11
S'lang'
p12
NsS'escaped'
p13
I00
sbag5
(g6
g7
V.
p14
tp15
Rp16
(dp17
g12
Nsg13
I00
sbag5
(g6
g7
Vbirt
p18
tp19
Rp20
(dp21
g12
Nsg13
I00
sbag5
(g6
g7
Vblogs
p22
tp23
Rp24
(dp25
g12
Nsg13
I00
sbag5
(g6
g7
Vcertification
p26
tp27
Rp28
(dp29
g12
Nsg13
I00
sbag5
(g6
g7
Vchin
p30
tp31
Rp32
(dp33
g12
Nsg13
I00
sbag5
(g6
g7
Vclearview
p34
tp35
Rp36
(dp37
g12
Nsg13
I00
sbag5
(g6
g7
Vcm
p38
tp39
Rp40
(dp41
g12
Nsg13
I00
sbag5
(g6
g7
Vdemo
p42
tp43
Rp44
(dp45
g12
Nsg13
I00
sbag5
(g6
g7
Vdemos
p46
tp47
Rp48
(dp49
g12
Nsg13
I00
sbag5
(g6
g7
Vdinesh
p50
tp51
Rp52
(dp53
g12
Nsg13
I00
sbag5
(g6
g7
Vdrea
p54
tp55
Rp56
(dp57
g12
Nsg13
I00
sbag5
(g6
g7
Vedademo
p58
tp59
Rp60
(dp61
g12
Nsg13
I00
sbag5
(g6
g7
Vedatesting
p62
tp63
Rp64
(dp65
g12
Nsg13
I00
sbag5
(g6
g7
Venwiki
p66
tp67
Rp68
(dp69
g12
Nsg13
I00
sbag5
(g6
g7
Vfernando
p70
tp71
Rp72
(dp73
g12
Nsg13
I00
sbag5
(g6
g7
Vflights
p74
tp75
Rp76
(dp77
g12
Nsg13
I00
sbag5
(g6
g7
Vfoodmart
p78
tp79
Rp80
(dp81
g12
Nsg13
I00
sbag5
(g6
g7
Vheaderparse
p82
tp83
Rp84
(dp85
g12
Nsg13
I00
sbag5
(g6
g7
Vheaderpipe
p86
tp87
Rp88
(dp89
g12
Nsg13
I00
sbag5
(g6
g7
Vhipie
p90
tp91
Rp92
(dp93
g12
Nsg13
I00
sbag5
(g6
g7
Vhthor
p94
tp95
Rp96
(dp97
g12
Nsg13
I00
sbag5
(g6
g7
Vin
p98
tp99
Rp100
(dp101
g12
Nsg13
I00
sbag5
(g6
g7
Vintro
p102
tp103
Rp104
(dp105
g12
Nsg13
I00
sbag5
(g6
g7
Vjctest
p106
tp107
Rp108
(dp109
g12
Nsg13
I00
sbag5
(g6
g7
Vjoseph
p110
tp111
Rp112
(dp113
g12
Nsg13
I00
sbag5
(g6
g7
Vopera
p114
tp115
Rp116
(dp117
g12
Nsg13
I00
sbag5
(g6
g7
Vorders
p118
tp119
Rp120
(dp121
g12
Nsg13
I00
sbag5
(g6
g7
Vrttest
p122
tp123
Rp124
(dp125
g12
Nsg13
I00
sbag5
(g6
g7
Vsachin
p126
tp127
Rp128
(dp129
g12
Nsg13
I00
sbag5
(g6
g7
Vsalt_demo
p130
tp131
Rp132
(dp133
g12
Nsg13
I00
sbag5
(g6
g7
Vsamples
p134
tp135
Rp136
(dp137
g12
Nsg13
I00
sbag5
(g6
g7
Vseer
p138
tp139
Rp140
(dp141
g12
Nsg13
I00
sbag5
(g6
g7
Vspoon
p142
tp143
Rp144
(dp145
g12
Nsg13
I00
sbag5
(g6
g7
Vspoondemo
p146
tp147
Rp148
(dp149
g12
Nsg13
I00
sbag5
(g6
g7
Vspoonfiles
p150
tp151
Rp152
(dp153
g12
Nsg13
I00
sbag5
(g6
g7
Vstocks
p154
tp155
Rp156
(dp157
g12
Nsg13
I00
sbag5
(g6
g7
Vsv
p158
tp159
Rp160
(dp161
g12
Nsg13
I00
sbag5
(g6
g7
Vtemp
p162
tp163
Rp164
(dp165
g12
Nsg13
I00
sbag5
(g6
g7
Vtest
p166
tp167
Rp168
(dp169
g12
Nsg13
I00
sbag5
(g6
g7
Vthor
p170
tp171
Rp172
(dp173
g12
Nsg13
I00
sbag5
(g6
g7
Vthor40_241
p174
tp175
Rp176
(dp177
g12
Nsg13
I00
sbag5
(g6
g7
Vtravelport
p178
tp179
Rp180
(dp181
g12
Nsg13
I00
sbag5
(g6
g7
Vtutorial
p182
tp183
Rp184
(dp185
g12
Nsg13
I00
sbag5
(g6
g7
Vtwitterfeed
p186
tp187
Rp188
(dp189
g12
Nsg13
I00
sbag5
(g6
g7
Vvivek
p190
tp191
Rp192
(dp193
g12
Nsg13
I00
sbag5
(g6
g7
Vvn
p194
tp195
Rp196
(dp197
g12
Nsg13
I00
sbag5
(g6
g7
Vz
p198
tp199
Rp200
(dp201
g12
Nsg13
I00
sbassV/vn/rfdresultfile
p202
(dp203
S'getattr'
p204
(dp205
S'st_ctime'
p206
F1470086199000.0
sS'st_nlinks'
p207
I1
sS'st_mtime'
p208
F1470086199000.0
sS'st_size'
p209
I12
sS'st_gid'
p210
I1000
sS'st_atime'
p211
F1470086199000.0
sS'st_uid'
p212
I1000
sS'st_mode'
p213
I33188
sssV/vivek/pt/.hidden
p214
(dp215
g204
(dp216
g206
I-1
sg207
I-1
sg208
I-1
sg209
I-1
sg210
I-1
sg211
I-1
sg212
I-1
sg213
I-1
sssV/thor
p217
(dp218
g204
(dp219
g206
F1384810597000.0
sg207
I24
sg208
F1384810597000.0
sg209
I4096
sg210
I1000
sg211
F1384810597000.0
sg212
I1000
sg213
I16877
sssV/twitterfeed/twittertweets1352493315209
p220
(dp221
g204
(dp222
g206
F1358550605000.0
sg207
I1
sg208
F1358550605000.0
sg209
I5940681
sg210
I1000
sg211
F1358550605000.0
sg212
I1000
sg213
I33188
sssV/sachin
p223
(dp224
g204
(dp225
g206
F1468438291000.0
sg207
I2
sg208
F1468438291000.0
sg209
I4096
sg210
I1000
sg211
F1468438291000.0
sg212
I1000
sg213
I16877
sssV/vivek/pt/dhiv1.csv
p226
(dp227
g204
(dp228
g206
F1474046155000.0
sg207
I1
sg208
F1474046155000.0
sg209
I161066
sg210
I1000
sg211
F1474046155000.0
sg212
I1000
sg213
I33188
sssV/vn/lrresultfile
p229
(dp230
g204
(dp231
g206
F1469650140000.0
sg207
I1
sg208
F1469650140000.0
sg209
I66688
sg210
I1000
sg211
F1469650140000.0
sg212
I1000
sg213
I33188
sssV/vivek/pt/connect4.csv
p232
(dp233
g204
(dp234
g206
F1474034874000.0
sg207
I1
sg208
F1474034874000.0
sg209
I5877459
sg210
I1000
sg211
F1474034874000.0
sg212
I1000
sg213
I33188
sssV/fernando
p235
(dp236
g204
(dp237
g206
F1366048651000.0
sg207
I2
sg208
F1366048651000.0
sg209
I4096
sg210
I1000
sg211
F1366048651000.0
sg212
I1000
sg213
I16877
sssV/samples
p238
(dp239
g204
(dp240
g206
F1340908517000.0
sg207
I2
sg208
F1340908517000.0
sg209
I4096
sg210
I1000
sg211
F1340908517000.0
sg212
I1000
sg213
I16877
sssV/twitterfeed/twittertweets1352498581178
p241
(dp242
g204
(dp243
g206
F1358551045000.0
sg207
I1
sg208
F1358551045000.0
sg209
I3709095
sg210
I1000
sg211
F1358551045000.0
sg212
I1000
sg213
I33188
sssV/vivek/d_housevoteds.csv
p244
(dp245
g204
(dp246
g206
F1468328235000.0
sg207
I1
sg208
F1468328235000.0
sg209
I9173
sg210
I1000
sg211
F1468328235000.0
sg212
I1000
sg213
I33188
sssV/vn/rfc_dsoutput
p247
(dp248
g204
(dp249
g206
F1470168304000.0
sg207
I1
sg208
F1470168304000.0
sg209
I5216
sg210
I1000
sg211
F1470168304000.0
sg212
I1000
sg213
I33188
sssV/vivek/c_ecolids.csv
p250
(dp251
g204
(dp252
g206
F1468089581000.0
sg207
I1
sg208
F1468089581000.0
sg209
I13464
sg210
I1000
sg211
F1468089581000.0
sg212
I1000
sg213
I33188
sssV/twitterfeed/twittertweets1352499100283
p253
(dp254
g204
(dp255
g206
F1358551479000.0
sg207
I1
sg208
F1358551479000.0
sg209
I3721571
sg210
I1000
sg211
F1358551479000.0
sg212
I1000
sg213
I33188
sssVvivek
p256
(dp257
g3
(lp258
Vc_ecolids.csv
p259
aVd_housevoteds.csv
p260
aVc2_f2_clustering.csv
p261
aVr_abaloneds.csv
p262
aVconnect4.csv
p263
ag5
(g6
g7
Vdata
p264
tp265
Rp266
(dp267
g12
Nsg13
I00
sbag5
(g6
g7
Vpt
p268
tp269
Rp270
(dp271
g12
Nsg13
I00
sbag5
(g6
g7
Vtest
p272
tp273
Rp274
(dp275
g12
Nsg13
I00
sbag5
(g6
g7
Vtesting
p276
tp277
Rp278
(dp279
g12
Nsg13
I00
sbassV/spoonfiles
p280
(dp281
g204
(dp282
g206
F1376581343000.0
sg207
I2
sg208
F1376581343000.0
sg209
I4096
sg210
I1000
sg211
F1376581343000.0
sg212
I1000
sg213
I16877
sssV/edademo
p283
(dp284
g204
(dp285
g206
F1396541655000.0
sg207
I2
sg208
F1396541655000.0
sg209
I4096
sg210
I1000
sg211
F1396541655000.0
sg212
I1000
sg213
I16877
sssV/temp
p286
(dp287
g204
(dp288
g206
F1467928165000.0
sg207
I5
sg208
F1467928165000.0
sg209
I4096
sg210
I1000
sg211
F1467928165000.0
sg212
I1000
sg213
I16877
sssV/vivek/pt/sensordata.csv
p289
(dp290
g204
(dp291
g206
F1474034813000.0
sg207
I1
sg208
F1474034813000.0
sg209
I7220080
sg210
I1000
sg211
F1474034813000.0
sg212
I1000
sg213
I33188
sssVtwitterfeed
p292
(dp293
g3
(lp294
Vtwittertweets1352493144311
p295
aVtwittertweets1352493228230
p296
aVtwittertweets1352493315209
p297
aVtwittertweets1352494779870
p298
aVtwittertweets1352495364139
p299
aVtwittertweets1352495939139
p300
aVtwittertweets1352496476120
p301
aVtwittertweets1352497014120
p302
aVtwittertweets1352497550121
p303
aVtwittertweets1352498075185
p304
aVtwittertweets1352498581178
p305
aVtwittertweets1352499100283
p306
aVtwittertweets1352499622201
p307
aVtwittertweets1352500129109
p308
aVtwittertweets1352500634221
p309
aVtwittertweets1352501151141
p310
aVtwittertweets1352501671116
p311
aVtwittertweets1352502179053
p312
aVtwittertweets1352502678132
p313
aVtwittertweets1352503195147
p314
aVtwittertweets1352503708102
p315
aVtwittertweets1352504227120
p316
aVtwittertweets1352504757086
p317
aVtwittertweets1352505299036
p318
aVtwittertweets1352505829075
p319
aVtwittertweets1352506365086
p320
aVtwittertweets1352506917124
p321
aVtwittertweets1352507463004
p322
aVtwittertweets1352508012073
p323
aVtwittertweets1352508571156
p324
aVtwittertweets1352509142052
p325
aVtwittertweets1352509697042
p326
aVtwittertweets1352510269942
p327
aVtwittertweets1352510832028
p328
aVtwittertweets1352511395960
p329
aVtwittertweets1352511967019
p330
aVtwittertweets1352512544933
p331
aVtwittertweets1352513104918
p332
aVtwittertweets1352513674058
p333
aVtwittertweets1352514247991
p334
aVtwittertweets1352514808958
p335
aVtwittertweets1352515379897
p336
aVtwittertweets1352515946970
p337
aVtwittertweets1352516504203
p338
aVtwittertweets1352517068968
p339
aVtwittertweets1352517642883
p340
aVtwittertweets1352518212867
p341
aVtwittertweets1352518789244
p342
aVtwittertweets1352519369847
p343
aVtwittertweets1352519970906
p344
aVtwittertweets1352520568922
p345
aVtwittertweets1352521180989
p346
aVtwittertweets1352521800976
p347
aVtwittertweets1352522430961
p348
aVtwittertweets1352523081822
p349
aVtwittertweets1352523745002
p350
aVtwittertweets1352524415241
p351
aVtwittertweets1352525109845
p352
aVtwittertweets1352525822859
p353
aVtwittertweets1352526561836
p354
aVtwittertweets1352527316828
p355
aVtwittertweets1352528092771
p356
aVtwittertweets1352528895820
p357
aVtwittertweets1352529727737
p358
aVtwittertweets1352530592798
p359
aVtwittertweets1352531468796
p360
aVtwittertweets1352532359704
p361
aVtwittertweets1352533262689
p362
aVtwittertweets1352534170691
p363
aVtwittertweets1352535062661
p364
aVtwittertweets1352535951855
p365
aVtwittertweets1352536830664
p366
aVtwittertweets1352537703662
p367
aVtwittertweets1352538554711
p368
aVtwittertweets1352539395688
p369
aVtwittertweets1352540212615
p370
aVtwittertweets1352541017676
p371
aVtwittertweets1352541797607
p372
aVtwittertweets1352542575602
p373
aVtwittertweets1352543346638
p374
aVtwittertweets1352544085643
p375
aVtwittertweets1352544807620
p376
aVtwittertweets1352545502627
p377
aVtwittertweets1352546203682
p378
aVtwittertweets1352546878626
p379
aVtwittertweets1352547526551
p380
aVtwittertweets1352548162598
p381
aVtwittertweets1352548774658
p382
aVtwittertweets1352549347599
p383
aVtwittertweets1352549940528
p384
aVtwittertweets1352550508702
p385
aVtwittertweets1352551056712
p386
aVtwittertweets1352551603527
p387
aVtwittertweets1352552144625
p388
aVtwittertweets1352552667991
p389
aVtwittertweets1352553184458
p390
aVtwittertweets1352553689612
p391
aVtwittertweets1352554185570
p392
aVtwittertweets1352554668492
p393
aVdemo_raw
p394
aVdemo_raw_csv
p395
aVparsedlocation
p396
aVubs_demo_tweets
p397
aVsample_tweet
p398
aVsample_tweet
p399
aVall
p400
assV/vn/class
p401
(dp402
g204
(dp403
g206
F1470083826000.0
sg207
I1
sg208
F1470083826000.0
sg209
I3000
sg210
I1000
sg211
F1470083826000.0
sg212
I1000
sg213
I33188
sssV/thor40_241
p404
(dp405
g204
(dp406
g206
I0
sg207
I3
sg208
I0
sg209
I4096
sg210
I1000
sg211
I0
sg212
I1000
sg213
I16877
sssV/dinesh
p407
(dp408
g204
(dp409
g206
F1465928804000.0
sg207
I8
sg208
F1465928804000.0
sg209
I4096
sg210
I1000
sg211
F1465928804000.0
sg212
I1000
sg213
I16877
sssV/vn/resultfile
p410
(dp411
g204
(dp412
g206
F1469646562000.0
sg207
I1
sg208
F1469646562000.0
sg209
I12
sg210
I1000
sg211
F1469646562000.0
sg212
I1000
sg213
I33188
sssV/vivek/pt
p413
(dp414
g204
(dp415
g206
F1474046155000.0
sg207
I2
sg208
F1474046155000.0
sg209
I4096
sg210
I1000
sg211
F1474046155000.0
sg212
I1000
sg213
I16877
sssV/joseph
p416
(dp417
g204
(dp418
g206
F1364503116000.0
sg207
I2
sg208
F1364503116000.0
sg209
I4096
sg210
I1000
sg211
F1364503116000.0
sg212
I1000
sg213
I16877
sssV/jctest
p419
(dp420
g204
(dp421
g206
F1378392096000.0
sg207
I2
sg208
F1378392096000.0
sg209
I4096
sg210
I1000
sg211
F1378392096000.0
sg212
I1000
sg213
I16877
sssV/orders/.hidden
p422
(dp423
g204
(dp424
g206
I-1
sg207
I-1
sg208
I-1
sg209
I-1
sg210
I-1
sg211
I-1
sg212
I-1
sg213
I-1
sssV/intro
p425
(dp426
g204
(dp427
g206
I0
sg207
I3
sg208
I0
sg209
I4096
sg210
I1000
sg211
I0
sg212
I1000
sg213
I16877
sssV/vn/dsoutput
p428
(dp429
g204
(dp430
g206
F1470167182000.0
sg207
I1
sg208
F1470167182000.0
sg209
I3520
sg210
I1000
sg211
F1470167182000.0
sg212
I1000
sg213
I33188
sssg3
(dp431
sV/vivek/testing
p432
(dp433
g204
(dp434
g206
F1487097013000.0
sg207
I2
sg208
F1487097013000.0
sg209
I4096
sg210
I1000
sg211
F1487097013000.0
sg212
I1000
sg213
I16877
sssV/vn/dtdresultfile
p435
(dp436
g204
(dp437
g206
F1470080787000.0
sg207
I1
sg208
F1470080787000.0
sg209
I12
sg210
I1000
sg211
F1470080787000.0
sg212
I1000
sg213
I33188
sssV/drea
p438
(dp439
g204
(dp440
g206
I0
sg207
I3
sg208
I0
sg209
I4096
sg210
I1000
sg211
I0
sg212
I1000
sg213
I16877
sssV/orders/products
p441
(dp442
g204
(dp443
g206
F1341494718000.0
sg207
I1
sg208
F1341494718000.0
sg209
I29169
sg210
I1000
sg211
F1341494718000.0
sg212
I1000
sg213
I33188
sssV/twitterfeed/twittertweets1352495939139
p444
(dp445
g204
(dp446
g206
F1358550822000.0
sg207
I1
sg208
F1358550822000.0
sg209
I3686813
sg210
I1000
sg211
F1358550822000.0
sg212
I1000
sg213
I33188
sssV/
p447
(dp448
g204
(dp449
g206
I0
sg207
I50
sg208
I0
sg209
I4096
sg210
I1000
sg211
I0
sg212
I1000
sg213
I16877
sssg204
(dp450
sV/twitterfeed/.hidden
p451
(dp452
g204
(dp453
g206
I-1
sg207
I-1
sg208
I-1
sg209
I-1
sg210
I-1
sg211
I-1
sg212
I-1
sg213
I-1
sssV/test
p454
(dp455
g204
(dp456
g206
F1366828451000.0
sg207
I2
sg208
F1366828451000.0
sg209
I4096
sg210
I1000
sg211
F1366828451000.0
sg212
I1000
sg213
I16877
sssV/twitterfeed/twittertweets1352498075185
p457
(dp458
g204
(dp459
g206
F1358551004000.0
sg207
I1
sg208
F1358551004000.0
sg209
I3713580
sg210
I1000
sg211
F1358551004000.0
sg212
I1000
sg213
I33188
sssV/foodmart
p460
(dp461
g204
(dp462
g206
F1376413502000.0
sg207
I2
sg208
F1376413502000.0
sg209
I4096
sg210
I1000
sg211
F1376413502000.0
sg212
I1000
sg213
I16877
sssV/sv
p463
(dp464
g204
(dp465
g206
I0
sg207
I3
sg208
I0
sg209
I4096
sg210
I1000
sg211
I0
sg212
I1000
sg213
I16877
sssV/hthor
p466
(dp467
g204
(dp468
g206
F1345934372000.0
sg207
I4
sg208
F1345934372000.0
sg209
I4096
sg210
I1000
sg211
F1345934372000.0
sg212
I1000
sg213
I16877
sssV/twitterfeed/twittertweets1352494779870
p469
(dp470
g204
(dp471
g206
F1358550707000.0
sg207
I1
sg208
F1358550707000.0
sg209
I3707021
sg210
I1000
sg211
F1358550707000.0
sg212
I1000
sg213
I33188
sssV/vn/.hidden
p472
(dp473
g204
(dp474
g206
I-1
sg207
I-1
sg208
I-1
sg209
I-1
sg210
I-1
sg211
I-1
sg212
I-1
sg213
I-1
sssV/seer
p475
(dp476
g204
(dp477
g206
F1345846815000.0
sg207
I4
sg208
F1345846815000.0
sg209
I4096
sg210
I1000
sg211
F1345846815000.0
sg212
I1000
sg213
I16877
sssV/edatesting
p478
(dp479
g204
(dp480
g206
I0
sg207
I3
sg208
I0
sg209
I4096
sg210
I1000
sg211
I0
sg212
I1000
sg213
I16877
sssV/twitterfeed/twittertweets1352497550121
p481
(dp482
g204
(dp483
g206
F1358550983000.0
sg207
I1
sg208
F1358550983000.0
sg209
I3690795
sg210
I1000
sg211
F1358550983000.0
sg212
I1000
sg213
I33188
sssV/.hidden
p484
(dp485
g204
(dp486
g206
I-1
sg207
I-1
sg208
I-1
sg209
I-1
sg210
I-1
sg211
I-1
sg212
I-1
sg213
I-1
sssV/vn/kmeanscentroids
p487
(dp488
g204
(dp489
g206
F1470258686000.0
sg207
I1
sg208
F1470258686000.0
sg209
I80
sg210
I1000
sg211
F1470258686000.0
sg212
I1000
sg213
I33188
sssV/travelport
p490
(dp491
g204
(dp492
g206
F1350590196000.0
sg207
I2
sg208
F1350590196000.0
sg209
I4096
sg210
I1000
sg211
F1350590196000.0
sg212
I1000
sg213
I16877
sssV/vn/rfd_dsoutput
p493
(dp494
g204
(dp495
g206
F1475286071000.0
sg207
I1
sg208
F1475286071000.0
sg209
I3200
sg210
I1000
sg211
F1475286071000.0
sg212
I1000
sg213
I33188
sssV/hipie
p496
(dp497
g204
(dp498
g206
I0
sg207
I3
sg208
I0
sg209
I4096
sg210
I1000
sg211
I0
sg212
I1000
sg213
I16877
sssV/rttest
p499
(dp500
g204
(dp501
g206
F1337092847000.0
sg207
I5
sg208
F1337092847000.0
sg209
I4096
sg210
I1000
sg211
F1337092847000.0
sg212
I1000
sg213
I16877
sssV/vivek/data/.hidden
p502
(dp503
g204
(dp504
g206
I-1
sg207
I-1
sg208
I-1
sg209
I-1
sg210
I-1
sg211
I-1
sg212
I-1
sg213
I-1
sssV/headerpipe
p505
(dp506
g204
(dp507
g206
F1371662724000.0
sg207
I2
sg208
F1371662724000.0
sg209
I4096
sg210
I1000
sg211
F1371662724000.0
sg212
I1000
sg213
I16877
sssV/z/.hidden
p508
(dp509
g204
(dp510
g206
I-1
sg207
I-1
sg208
I-1
sg209
I-1
sg210
I-1
sg211
I-1
sg212
I-1
sg213
I-1
sssV/birt
p511
(dp512
g204
(dp513
g206
F1384977073000.0
sg207
I2
sg208
F1384977073000.0
sg209
I4096
sg210
I1000
sg211
F1384977073000.0
sg212
I1000
sg213
I16877
sssVvivek::pt
p514
(dp515
g3
(lp516
Vsensordata.csv
p517
aVconnect4.csv
p518
aVdwhiterook.csv
p519
aVdhiv1.csv
p520
aVdadult.csv
p521
assV/vivek
p522
(dp523
g204
(dp524
g206
F1473729439000.0
sg207
I6
sg208
F1473729439000.0
sg209
I4096
sg210
I1000
sg211
F1473729439000.0
sg212
I1000
sg213
I16877
sssV/.Trash-1000
p525
(dp526
g204
(dp527
g206
I-1
sg207
I-1
sg208
I-1
sg209
I-1
sg210
I-1
sg211
I-1
sg212
I-1
sg213
I-1
sssV/certification
p528
(dp529
g204
(dp530
g206
F1373469004000.0
sg207
I2
sg208
F1373469004000.0
sg209
I4096
sg210
I1000
sg211
F1373469004000.0
sg212
I1000
sg213
I16877
sssV/vivek/pt/dadult.csv
p531
(dp532
g204
(dp533
g206
F1474046155000.0
sg207
I1
sg208
F1474046155000.0
sg209
I1751913
sg210
I1000
sg211
F1474046155000.0
sg212
I1000
sg213
I33188
sssV/blogs
p534
(dp535
g204
(dp536
g206
F1338303098000.0
sg207
I2
sg208
F1338303098000.0
sg209
I4096
sg210
I1000
sg211
F1338303098000.0
sg212
I1000
sg213
I16877
sssV/.Trash
p537
(dp538
g204
(dp539
g206
I-1
sg207
I-1
sg208
I-1
sg209
I-1
sg210
I-1
sg211
I-1
sg212
I-1
sg213
I-1
sssV/flights
p540
(dp541
g204
(dp542
g206
F1368636092000.0
sg207
I2
sg208
F1368636092000.0
sg209
I4096
sg210
I1000
sg211
F1368636092000.0
sg212
I1000
sg213
I16877
sssV/vn/rfclass
p543
(dp544
g204
(dp545
g206
F1470082014000.0
sg207
I1
sg208
F1470082014000.0
sg209
I3744
sg210
I1000
sg211
F1470082014000.0
sg212
I1000
sg213
I33188
sssV/vivek/pt/dwhiterook.csv
p546
(dp547
g204
(dp548
g206
F1474046154000.0
sg207
I1
sg208
F1474046154000.0
sg209
I442372
sg210
I1000
sg211
F1474046154000.0
sg212
I1000
sg213
I33188
sssV/cm
p549
(dp550
g204
(dp551
g206
F1384976992000.0
sg207
I2
sg208
F1384976992000.0
sg209
I4096
sg210
I1000
sg211
F1384976992000.0
sg212
I1000
sg213
I16877
sssV/salt_demo
p552
(dp553
g204
(dp554
g206
F1366048780000.0
sg207
I2
sg208
F1366048780000.0
sg209
I4096
sg210
I1000
sg211
F1366048780000.0
sg212
I1000
sg213
I16877
sssV/twitterfeed/twittertweets1352495364139
p555
(dp556
g204
(dp557
g206
F1358550748000.0
sg207
I1
sg208
F1358550748000.0
sg209
I3675450
sg210
I1000
sg211
F1358550748000.0
sg212
I1000
sg213
I33188
sssV/twitterfeed/twittertweets1352496476120
p558
(dp559
g204
(dp560
g206
F1358550859000.0
sg207
I1
sg208
F1358550859000.0
sg209
I3698524
sg210
I1000
sg211
F1358550859000.0
sg212
I1000
sg213
I33188
sssV/orders
p561
(dp562
g204
(dp563
g206
F1341494718000.0
sg207
I2
sg208
F1341494718000.0
sg209
I4096
sg210
I1000
sg211
F1341494718000.0
sg212
I1000
sg213
I16877
sssV/twitterfeed
p564
(dp565
g204
(dp566
g206
F1359489414000.0
sg207
I2
sg208
F1359489414000.0
sg209
I4096
sg210
I1000
sg211
F1359489414000.0
sg212
I1000
sg213
I16877
sssV/opera
p567
(dp568
g204
(dp569
g206
F1341600823000.0
sg207
I2
sg208
F1341600823000.0
sg209
I4096
sg210
I1000
sg211
F1341600823000.0
sg212
I1000
sg213
I16877
sssV/z/twitterfeed
p570
(dp571
g204
(dp572
g206
F1363386662000.0
sg207
I3
sg208
F1363386662000.0
sg209
I4096
sg210
I1000
sg211
F1363386662000.0
sg212
I1000
sg213
I16877
sssV/stocks
p573
(dp574
g204
(dp575
g206
F1369163256000.0
sg207
I3
sg208
F1369163256000.0
sg209
I4096
sg210
I1000
sg211
F1369163256000.0
sg212
I1000
sg213
I16877
sssg198
(dp576
g3
(lp577
g5
(g6
g7
Vtwitterfeed
p578
tp579
Rp580
(dp581
g12
Nsg13
I00
sbassV/vivek/data/c_ecolids.csv
p582
(dp583
g204
(dp584
g206
F1479482800000.0
sg207
I1
sg208
F1479482800000.0
sg209
I13464
sg210
I1000
sg211
F1479482800000.0
sg212
I1000
sg213
I33188
sssV/in
p585
(dp586
g204
(dp587
g206
F1395158304000.0
sg207
I2
sg208
F1395158304000.0
sg209
I4096
sg210
I1000
sg211
F1395158304000.0
sg212
I1000
sg213
I16877
sssV/vivek/.hidden
p588
(dp589
g204
(dp590
g206
I-1
sg207
I-1
sg208
I-1
sg209
I-1
sg210
I-1
sg211
I-1
sg212
I-1
sg213
I-1
sssV/twitterfeed/twittertweets1352493228230
p591
(dp592
g204
(dp593
g206
F1358550325000.0
sg207
I1
sg208
F1358550325000.0
sg209
I329073
sg210
I1000
sg211
F1358550325000.0
sg212
I1000
sg213
I33188
sssVvn
p594
(dp595
g3
(lp596
Vlrcoefficients
p597
aVresultfile
p598
aVlrresultfile
p599
aVdtdresultfile
p600
aVrfclass
p601
aVclass
p602
aVrfdresultfile
p603
aVrfd_learner_output
p604
aVdsoutput
p605
aVrfc_dsoutput
p606
aVkmeanscentroids
p607
aVkmeansresultfile
p608
aVrfd_dsoutput
p609
assV/headerparse
p610
(dp611
g204
(dp612
g206
F1371663019000.0
sg207
I2
sg208
F1371663019000.0
sg209
I4096
sg210
I1000
sg211
F1371663019000.0
sg212
I1000
sg213
I16877
sssV/vivek/testing/.hidden
p613
(dp614
g204
(dp615
g206
I-1
sg207
I-1
sg208
I-1
sg209
I-1
sg210
I-1
sg211
I-1
sg212
I-1
sg213
I-1
sssV/vn
p616
(dp617
g204
(dp618
g206
F1475286071000.0
sg207
I2
sg208
F1475286071000.0
sg209
I4096
sg210
I1000
sg211
F1475286071000.0
sg212
I1000
sg213
I16877
sssVorders
p619
(dp620
g3
(lp621
Vproducts
p622
assV/demos
p623
(dp624
g204
(dp625
g206
F1371843456000.0
sg207
I2
sg208
F1371843456000.0
sg209
I4096
sg210
I1000
sg211
F1371843456000.0
sg212
I1000
sg213
I16877
sssVvivek::data
p626
(dp627
g3
(lp628
Vc_ecolids.csv
p629
assV/z
p630
(dp631
g204
(dp632
g206
I0
sg207
I3
sg208
I0
sg209
I4096
sg210
I1000
sg211
I0
sg212
I1000
sg213
I16877
sssV/vivek/c2_f2_clustering.csv
p633
(dp634
g204
(dp635
g206
F1468333399000.0
sg207
I1
sg208
F1468333399000.0
sg209
I32397
sg210
I1000
sg211
F1468333399000.0
sg212
I1000
sg213
I33188
sssV/vivek/connect4.csv
p636
(dp637
g204
(dp638
g206
F1473729439000.0
sg207
I1
sg208
F1473729439000.0
sg209
I5877459
sg210
I1000
sg211
F1473729439000.0
sg212
I1000
sg213
I33188
sssV/vn/lrcoefficients
p639
(dp640
g204
(dp641
g206
F1469451843000.0
sg207
I1
sg208
F1469451843000.0
sg209
I104
sg210
I1000
sg211
F1469451843000.0
sg212
I1000
sg213
I33188
sssV/chin
p642
(dp643
g204
(dp644
g206
I0
sg207
I3
sg208
I0
sg209
I4096
sg210
I1000
sg211
I0
sg212
I1000
sg213
I16877
sssV/vivek/test
p645
(dp646
g204
(dp647
g206
F1487060262000.0
sg207
I2
sg208
F1487060262000.0
sg209
I4096
sg210
I1000
sg211
F1487060262000.0
sg212
I1000
sg213
I16877
sssV/vivek/data
p648
(dp649
g204
(dp650
g206
F1479482800000.0
sg207
I2
sg208
F1479482800000.0
sg209
I4096
sg210
I1000
sg211
F1479482800000.0
sg212
I1000
sg213
I16877
sssV/demo
p651
(dp652
g204
(dp653
g206
F1371843589000.0
sg207
I3
sg208
F1371843589000.0
sg209
I4096
sg210
I1000
sg211
F1371843589000.0
sg212
I1000
sg213
I16877
sssV/twitterfeed/twittertweets1352493144311
p654
(dp655
g204
(dp656
g206
F1358550047000.0
sg207
I1
sg208
F1358550047000.0
sg209
I362582
sg210
I1000
sg211
F1358550047000.0
sg212
I1000
sg213
I33188
sssV/spoondemo
p657
(dp658
g204
(dp659
g206
F1378330936000.0
sg207
I2
sg208
F1378330936000.0
sg209
I4096
sg210
I1000
sg211
F1378330936000.0
sg212
I1000
sg213
I16877
sssV/twitterfeed/twittertweets1352497014120
p660
(dp661
g204
(dp662
g206
F1358550918000.0
sg207
I1
sg208
F1358550918000.0
sg209
I3686245
sg210
I1000
sg211
F1358550918000.0
sg212
I1000
sg213
I33188
sssV/vivek/r_abaloneds.csv
p663
(dp664
g204
(dp665
g206
F1468345232000.0
sg207
I1
sg208
F1468345232000.0
sg209
I215828
sg210
I1000
sg211
F1468345232000.0
sg212
I1000
sg213
I33188
sssV/clearview
p666
(dp667
g204
(dp668
g206
I0
sg207
I6
sg208
I0
sg209
I4096
sg210
I1000
sg211
I0
sg212
I1000
sg213
I16877
sssV/spoon
p669
(dp670
g204
(dp671
g206
F1363368774000.0
sg207
I2
sg208
F1363368774000.0
sg209
I4096
sg210
I1000
sg211
F1363368774000.0
sg212
I1000
sg213
I16877
sssV/vn/rfd_learner_output
p672
(dp673
g204
(dp674
g206
F1470162882000.0
sg207
I1
sg208
F1470162882000.0
sg209
I2520
sg210
I1000
sg211
F1470162882000.0
sg212
I1000
sg213
I33188
sssVvivek::testing
p675
(dp676
g3
(lp677
Vc_ecolids.csv
p678
assV/$.declaredata
p679
(dp680
g204
(dp681
g206
I0
sg207
I3
sg208
I0
sg209
I4096
sg210
I1000
sg211
I0
sg212
I1000
sg213
I16877
sssV/tutorial
p682
(dp683
g204
(dp684
g206
I0
sg207
I4
sg208
I0
sg209
I4096
sg210
I1000
sg211
I0
sg212
I1000
sg213
I16877
sssV/enwiki
p685
(dp686
g204
(dp687
g206
F1368553193000.0
sg207
I2
sg208
F1368553193000.0
sg209
I4096
sg210
I1000
sg211
F1368553193000.0
sg212
I1000
sg213
I16877
sssV/vivek/testing/c_ecolids.csv
p688
(dp689
g204
(dp690
g206
F1487097013000.0
sg207
I1
sg208
F1487097013000.0
sg209
I13464
sg210
I1000
sg211
F1487097013000.0
sg212
I1000
sg213
I33188
sssV/vn/kmeansresultfile
p691
(dp692
g204
(dp693
g206
F1470258689000.0
sg207
I1
sg208
F1470258689000.0
sg209
I16000
sg210
I1000
sg211
F1470258689000.0
sg212
I1000
sg213
I33188
sss.